
a4_c_coding.elf:     file format elf32-avr

Sections:
Idx Name          Size      VMA       LMA       File off  Algn
  0 .data         00000000  00800200  00800200  00000426  2**0
                  CONTENTS, ALLOC, LOAD, DATA
  1 .text         000003b2  00000000  00000000  00000074  2**1
                  CONTENTS, ALLOC, LOAD, READONLY, CODE
  2 .bss          00000008  00800200  00800200  00000426  2**0
                  ALLOC
  3 .comment      00000030  00000000  00000000  00000426  2**0
                  CONTENTS, READONLY
  4 .note.gnu.avr.deviceinfo 00000040  00000000  00000000  00000458  2**2
                  CONTENTS, READONLY
  5 .debug_aranges 00000058  00000000  00000000  00000498  2**0
                  CONTENTS, READONLY, DEBUGGING
  6 .debug_info   0000112f  00000000  00000000  000004f0  2**0
                  CONTENTS, READONLY, DEBUGGING
  7 .debug_abbrev 00000d3f  00000000  00000000  0000161f  2**0
                  CONTENTS, READONLY, DEBUGGING
  8 .debug_line   000006ba  00000000  00000000  0000235e  2**0
                  CONTENTS, READONLY, DEBUGGING
  9 .debug_frame  00000134  00000000  00000000  00002a18  2**2
                  CONTENTS, READONLY, DEBUGGING
 10 .debug_str    000005d1  00000000  00000000  00002b4c  2**0
                  CONTENTS, READONLY, DEBUGGING
 11 .debug_loc    0000056e  00000000  00000000  0000311d  2**0
                  CONTENTS, READONLY, DEBUGGING
 12 .debug_ranges 00000078  00000000  00000000  0000368b  2**0
                  CONTENTS, READONLY, DEBUGGING

Disassembly of section .text:

00000000 <__vectors>:
   0:	71 c0       	rjmp	.+226    	; 0xe4 <__ctors_end>
   2:	00 00       	nop
   4:	8e c0       	rjmp	.+284    	; 0x122 <__bad_interrupt>
   6:	00 00       	nop
   8:	8c c0       	rjmp	.+280    	; 0x122 <__bad_interrupt>
   a:	00 00       	nop
   c:	8a c0       	rjmp	.+276    	; 0x122 <__bad_interrupt>
   e:	00 00       	nop
  10:	88 c0       	rjmp	.+272    	; 0x122 <__bad_interrupt>
  12:	00 00       	nop
  14:	86 c0       	rjmp	.+268    	; 0x122 <__bad_interrupt>
  16:	00 00       	nop
  18:	84 c0       	rjmp	.+264    	; 0x122 <__bad_interrupt>
  1a:	00 00       	nop
  1c:	82 c0       	rjmp	.+260    	; 0x122 <__bad_interrupt>
  1e:	00 00       	nop
  20:	80 c0       	rjmp	.+256    	; 0x122 <__bad_interrupt>
  22:	00 00       	nop
  24:	7e c0       	rjmp	.+252    	; 0x122 <__bad_interrupt>
  26:	00 00       	nop
  28:	7c c0       	rjmp	.+248    	; 0x122 <__bad_interrupt>
  2a:	00 00       	nop
  2c:	7a c0       	rjmp	.+244    	; 0x122 <__bad_interrupt>
  2e:	00 00       	nop
  30:	78 c0       	rjmp	.+240    	; 0x122 <__bad_interrupt>
  32:	00 00       	nop
  34:	76 c0       	rjmp	.+236    	; 0x122 <__bad_interrupt>
  36:	00 00       	nop
  38:	74 c0       	rjmp	.+232    	; 0x122 <__bad_interrupt>
  3a:	00 00       	nop
  3c:	72 c0       	rjmp	.+228    	; 0x122 <__bad_interrupt>
  3e:	00 00       	nop
  40:	70 c0       	rjmp	.+224    	; 0x122 <__bad_interrupt>
  42:	00 00       	nop
  44:	6f c0       	rjmp	.+222    	; 0x124 <__vector_17>
  46:	00 00       	nop
  48:	6c c0       	rjmp	.+216    	; 0x122 <__bad_interrupt>
  4a:	00 00       	nop
  4c:	6a c0       	rjmp	.+212    	; 0x122 <__bad_interrupt>
  4e:	00 00       	nop
  50:	68 c0       	rjmp	.+208    	; 0x122 <__bad_interrupt>
  52:	00 00       	nop
  54:	66 c0       	rjmp	.+204    	; 0x122 <__bad_interrupt>
  56:	00 00       	nop
  58:	64 c0       	rjmp	.+200    	; 0x122 <__bad_interrupt>
  5a:	00 00       	nop
  5c:	62 c0       	rjmp	.+196    	; 0x122 <__bad_interrupt>
  5e:	00 00       	nop
  60:	60 c0       	rjmp	.+192    	; 0x122 <__bad_interrupt>
  62:	00 00       	nop
  64:	5e c0       	rjmp	.+188    	; 0x122 <__bad_interrupt>
  66:	00 00       	nop
  68:	5c c0       	rjmp	.+184    	; 0x122 <__bad_interrupt>
  6a:	00 00       	nop
  6c:	5a c0       	rjmp	.+180    	; 0x122 <__bad_interrupt>
  6e:	00 00       	nop
  70:	58 c0       	rjmp	.+176    	; 0x122 <__bad_interrupt>
  72:	00 00       	nop
  74:	56 c0       	rjmp	.+172    	; 0x122 <__bad_interrupt>
  76:	00 00       	nop
  78:	54 c0       	rjmp	.+168    	; 0x122 <__bad_interrupt>
  7a:	00 00       	nop
  7c:	52 c0       	rjmp	.+164    	; 0x122 <__bad_interrupt>
  7e:	00 00       	nop
  80:	76 c0       	rjmp	.+236    	; 0x16e <__vector_32>
  82:	00 00       	nop
  84:	4e c0       	rjmp	.+156    	; 0x122 <__bad_interrupt>
  86:	00 00       	nop
  88:	4c c0       	rjmp	.+152    	; 0x122 <__bad_interrupt>
  8a:	00 00       	nop
  8c:	4a c0       	rjmp	.+148    	; 0x122 <__bad_interrupt>
  8e:	00 00       	nop
  90:	48 c0       	rjmp	.+144    	; 0x122 <__bad_interrupt>
  92:	00 00       	nop
  94:	46 c0       	rjmp	.+140    	; 0x122 <__bad_interrupt>
  96:	00 00       	nop
  98:	44 c0       	rjmp	.+136    	; 0x122 <__bad_interrupt>
  9a:	00 00       	nop
  9c:	42 c0       	rjmp	.+132    	; 0x122 <__bad_interrupt>
  9e:	00 00       	nop
  a0:	40 c0       	rjmp	.+128    	; 0x122 <__bad_interrupt>
  a2:	00 00       	nop
  a4:	3e c0       	rjmp	.+124    	; 0x122 <__bad_interrupt>
  a6:	00 00       	nop
  a8:	3c c0       	rjmp	.+120    	; 0x122 <__bad_interrupt>
  aa:	00 00       	nop
  ac:	3a c0       	rjmp	.+116    	; 0x122 <__bad_interrupt>
  ae:	00 00       	nop
  b0:	38 c0       	rjmp	.+112    	; 0x122 <__bad_interrupt>
  b2:	00 00       	nop
  b4:	36 c0       	rjmp	.+108    	; 0x122 <__bad_interrupt>
  b6:	00 00       	nop
  b8:	34 c0       	rjmp	.+104    	; 0x122 <__bad_interrupt>
  ba:	00 00       	nop
  bc:	32 c0       	rjmp	.+100    	; 0x122 <__bad_interrupt>
  be:	00 00       	nop
  c0:	30 c0       	rjmp	.+96     	; 0x122 <__bad_interrupt>
  c2:	00 00       	nop
  c4:	2e c0       	rjmp	.+92     	; 0x122 <__bad_interrupt>
  c6:	00 00       	nop
  c8:	2c c0       	rjmp	.+88     	; 0x122 <__bad_interrupt>
  ca:	00 00       	nop
  cc:	2a c0       	rjmp	.+84     	; 0x122 <__bad_interrupt>
  ce:	00 00       	nop
  d0:	28 c0       	rjmp	.+80     	; 0x122 <__bad_interrupt>
  d2:	00 00       	nop
  d4:	26 c0       	rjmp	.+76     	; 0x122 <__bad_interrupt>
  d6:	00 00       	nop
  d8:	24 c0       	rjmp	.+72     	; 0x122 <__bad_interrupt>
  da:	00 00       	nop
  dc:	22 c0       	rjmp	.+68     	; 0x122 <__bad_interrupt>
  de:	00 00       	nop
  e0:	20 c0       	rjmp	.+64     	; 0x122 <__bad_interrupt>
	...

000000e4 <__ctors_end>:
  e4:	11 24       	eor	r1, r1
  e6:	1f be       	out	0x3f, r1	; 63
  e8:	cf ef       	ldi	r28, 0xFF	; 255
  ea:	d1 e2       	ldi	r29, 0x21	; 33
  ec:	de bf       	out	0x3e, r29	; 62
  ee:	cd bf       	out	0x3d, r28	; 61
  f0:	00 e0       	ldi	r16, 0x00	; 0
  f2:	0c bf       	out	0x3c, r16	; 60

000000f4 <__do_copy_data>:
  f4:	12 e0       	ldi	r17, 0x02	; 2
  f6:	a0 e0       	ldi	r26, 0x00	; 0
  f8:	b2 e0       	ldi	r27, 0x02	; 2
  fa:	e2 eb       	ldi	r30, 0xB2	; 178
  fc:	f3 e0       	ldi	r31, 0x03	; 3
  fe:	00 e0       	ldi	r16, 0x00	; 0
 100:	0b bf       	out	0x3b, r16	; 59
 102:	02 c0       	rjmp	.+4      	; 0x108 <__do_copy_data+0x14>
 104:	07 90       	elpm	r0, Z+
 106:	0d 92       	st	X+, r0
 108:	a0 30       	cpi	r26, 0x00	; 0
 10a:	b1 07       	cpc	r27, r17
 10c:	d9 f7       	brne	.-10     	; 0x104 <__do_copy_data+0x10>

0000010e <__do_clear_bss>:
 10e:	22 e0       	ldi	r18, 0x02	; 2
 110:	a0 e0       	ldi	r26, 0x00	; 0
 112:	b2 e0       	ldi	r27, 0x02	; 2
 114:	01 c0       	rjmp	.+2      	; 0x118 <.do_clear_bss_start>

00000116 <.do_clear_bss_loop>:
 116:	1d 92       	st	X+, r1

00000118 <.do_clear_bss_start>:
 118:	a8 30       	cpi	r26, 0x08	; 8
 11a:	b2 07       	cpc	r27, r18
 11c:	e1 f7       	brne	.-8      	; 0x116 <.do_clear_bss_loop>
 11e:	14 d1       	rcall	.+552    	; 0x348 <main>
 120:	46 c1       	rjmp	.+652    	; 0x3ae <_exit>

00000122 <__bad_interrupt>:
 122:	6e cf       	rjmp	.-292    	; 0x0 <__vectors>

00000124 <__vector_17>:
		}		
	}
}
		

void light_show() {
 124:	1f 92       	push	r1
 126:	0f 92       	push	r0
 128:	0f b6       	in	r0, 0x3f	; 63
 12a:	0f 92       	push	r0
 12c:	11 24       	eor	r1, r1
 12e:	8f 93       	push	r24
 130:	9f 93       	push	r25
 132:	af 93       	push	r26
 134:	bf 93       	push	r27
 136:	80 91 04 02 	lds	r24, 0x0204	; 0x800204 <count>
 13a:	90 91 05 02 	lds	r25, 0x0205	; 0x800205 <count+0x1>
 13e:	a0 91 06 02 	lds	r26, 0x0206	; 0x800206 <count+0x2>
 142:	b0 91 07 02 	lds	r27, 0x0207	; 0x800207 <count+0x3>
 146:	01 96       	adiw	r24, 0x01	; 1
 148:	a1 1d       	adc	r26, r1
 14a:	b1 1d       	adc	r27, r1
 14c:	80 93 04 02 	sts	0x0204, r24	; 0x800204 <count>
 150:	90 93 05 02 	sts	0x0205, r25	; 0x800205 <count+0x1>
 154:	a0 93 06 02 	sts	0x0206, r26	; 0x800206 <count+0x2>
 158:	b0 93 07 02 	sts	0x0207, r27	; 0x800207 <count+0x3>
 15c:	bf 91       	pop	r27
 15e:	af 91       	pop	r26
 160:	9f 91       	pop	r25
 162:	8f 91       	pop	r24
 164:	0f 90       	pop	r0
 166:	0f be       	out	0x3f, r0	; 63
 168:	0f 90       	pop	r0
 16a:	1f 90       	pop	r1
 16c:	18 95       	reti

0000016e <__vector_32>:
 16e:	1f 92       	push	r1
 170:	0f 92       	push	r0
 172:	0f b6       	in	r0, 0x3f	; 63
 174:	0f 92       	push	r0
 176:	11 24       	eor	r1, r1
 178:	8f 93       	push	r24
 17a:	9f 93       	push	r25
 17c:	af 93       	push	r26
 17e:	bf 93       	push	r27
 180:	80 91 00 02 	lds	r24, 0x0200	; 0x800200 <__DATA_REGION_ORIGIN__>
 184:	90 91 01 02 	lds	r25, 0x0201	; 0x800201 <__DATA_REGION_ORIGIN__+0x1>
 188:	a0 91 02 02 	lds	r26, 0x0202	; 0x800202 <__DATA_REGION_ORIGIN__+0x2>
 18c:	b0 91 03 02 	lds	r27, 0x0203	; 0x800203 <__DATA_REGION_ORIGIN__+0x3>
 190:	05 96       	adiw	r24, 0x05	; 5
 192:	a1 1d       	adc	r26, r1
 194:	b1 1d       	adc	r27, r1
 196:	80 93 00 02 	sts	0x0200, r24	; 0x800200 <__DATA_REGION_ORIGIN__>
 19a:	90 93 01 02 	sts	0x0201, r25	; 0x800201 <__DATA_REGION_ORIGIN__+0x1>
 19e:	a0 93 02 02 	sts	0x0202, r26	; 0x800202 <__DATA_REGION_ORIGIN__+0x2>
 1a2:	b0 93 03 02 	sts	0x0203, r27	; 0x800203 <__DATA_REGION_ORIGIN__+0x3>
 1a6:	bf 91       	pop	r27
 1a8:	af 91       	pop	r26
 1aa:	9f 91       	pop	r25
 1ac:	8f 91       	pop	r24
 1ae:	0f 90       	pop	r0
 1b0:	0f be       	out	0x3f, r0	; 63
 1b2:	0f 90       	pop	r0
 1b4:	1f 90       	pop	r1
 1b6:	18 95       	reti

000001b8 <led_state>:
 1b8:	9f ef       	ldi	r25, 0xFF	; 255
 1ba:	90 93 0a 01 	sts	0x010A, r25	; 0x80010a <__TEXT_REGION_LENGTH__+0x70010a>
 1be:	88 23       	and	r24, r24
 1c0:	41 f0       	breq	.+16     	; 0x1d2 <led_state+0x1a>
 1c2:	81 30       	cpi	r24, 0x01	; 1
 1c4:	41 f0       	breq	.+16     	; 0x1d6 <led_state+0x1e>
 1c6:	82 30       	cpi	r24, 0x02	; 2
 1c8:	41 f0       	breq	.+16     	; 0x1da <led_state+0x22>
 1ca:	83 30       	cpi	r24, 0x03	; 3
 1cc:	a9 f4       	brne	.+42     	; 0x1f8 <led_state+0x40>
 1ce:	82 e0       	ldi	r24, 0x02	; 2
 1d0:	05 c0       	rjmp	.+10     	; 0x1dc <led_state+0x24>
 1d2:	80 e8       	ldi	r24, 0x80	; 128
 1d4:	03 c0       	rjmp	.+6      	; 0x1dc <led_state+0x24>
 1d6:	80 e2       	ldi	r24, 0x20	; 32
 1d8:	01 c0       	rjmp	.+2      	; 0x1dc <led_state+0x24>
 1da:	88 e0       	ldi	r24, 0x08	; 8
 1dc:	66 23       	and	r22, r22
 1de:	31 f0       	breq	.+12     	; 0x1ec <led_state+0x34>
 1e0:	eb e0       	ldi	r30, 0x0B	; 11
 1e2:	f1 e0       	ldi	r31, 0x01	; 1
 1e4:	90 81       	ld	r25, Z
 1e6:	89 2b       	or	r24, r25
 1e8:	80 83       	st	Z, r24
 1ea:	08 95       	ret
 1ec:	eb e0       	ldi	r30, 0x0B	; 11
 1ee:	f1 e0       	ldi	r31, 0x01	; 1
 1f0:	90 81       	ld	r25, Z
 1f2:	80 95       	com	r24
 1f4:	89 23       	and	r24, r25
 1f6:	80 83       	st	Z, r24
 1f8:	08 95       	ret

000001fa <pulse_glow>:
 1fa:	b8 2e       	mov	r11, r24
 1fc:	00 e0       	ldi	r16, 0x00	; 0
 1fe:	10 e0       	ldi	r17, 0x00	; 0
 200:	c0 e0       	ldi	r28, 0x00	; 0
 202:	d0 e0       	ldi	r29, 0x00	; 0
 204:	c1 2c       	mov	r12, r1
 206:	d1 2c       	mov	r13, r1
 208:	99 24       	eor	r9, r9
 20a:	93 94       	inc	r9
 20c:	a1 2c       	mov	r10, r1
 20e:	0f 2e       	mov	r0, r31
 210:	fb e0       	ldi	r31, 0x0B	; 11
 212:	ef 2e       	mov	r14, r31
 214:	ff 24       	eor	r15, r15
 216:	f3 94       	inc	r15
 218:	f0 2d       	mov	r31, r0
 21a:	c4 3f       	cpi	r28, 0xF4	; 244
 21c:	21 e0       	ldi	r18, 0x01	; 1
 21e:	d2 07       	cpc	r29, r18
 220:	2c f4       	brge	.+10     	; 0x22c <pulse_glow+0x32>
 222:	dd 23       	and	r29, r29
 224:	f4 f0       	brlt	.+60     	; 0x262 <pulse_glow+0x68>
 226:	01 15       	cp	r16, r1
 228:	11 05       	cpc	r17, r1
 22a:	c1 f4       	brne	.+48     	; 0x25c <pulse_glow+0x62>
 22c:	80 91 00 02 	lds	r24, 0x0200	; 0x800200 <__DATA_REGION_ORIGIN__>
 230:	90 91 01 02 	lds	r25, 0x0201	; 0x800201 <__DATA_REGION_ORIGIN__+0x1>
 234:	a0 91 02 02 	lds	r26, 0x0202	; 0x800202 <__DATA_REGION_ORIGIN__+0x2>
 238:	b0 91 03 02 	lds	r27, 0x0203	; 0x800203 <__DATA_REGION_ORIGIN__+0x3>
 23c:	06 97       	sbiw	r24, 0x06	; 6
 23e:	a1 05       	cpc	r26, r1
 240:	b1 05       	cpc	r27, r1
 242:	3c f1       	brlt	.+78     	; 0x292 <pulse_glow+0x98>
 244:	21 97       	sbiw	r28, 0x01	; 1
 246:	10 92 00 02 	sts	0x0200, r1	; 0x800200 <__DATA_REGION_ORIGIN__>
 24a:	10 92 01 02 	sts	0x0201, r1	; 0x800201 <__DATA_REGION_ORIGIN__+0x1>
 24e:	10 92 02 02 	sts	0x0202, r1	; 0x800202 <__DATA_REGION_ORIGIN__+0x2>
 252:	10 92 03 02 	sts	0x0203, r1	; 0x800203 <__DATA_REGION_ORIGIN__+0x3>
 256:	0c 2d       	mov	r16, r12
 258:	1d 2d       	mov	r17, r13
 25a:	20 c0       	rjmp	.+64     	; 0x29c <pulse_glow+0xa2>
 25c:	01 30       	cpi	r16, 0x01	; 1
 25e:	11 05       	cpc	r17, r1
 260:	e9 f4       	brne	.+58     	; 0x29c <pulse_glow+0xa2>
 262:	80 91 00 02 	lds	r24, 0x0200	; 0x800200 <__DATA_REGION_ORIGIN__>
 266:	90 91 01 02 	lds	r25, 0x0201	; 0x800201 <__DATA_REGION_ORIGIN__+0x1>
 26a:	a0 91 02 02 	lds	r26, 0x0202	; 0x800202 <__DATA_REGION_ORIGIN__+0x2>
 26e:	b0 91 03 02 	lds	r27, 0x0203	; 0x800203 <__DATA_REGION_ORIGIN__+0x3>
 272:	06 97       	sbiw	r24, 0x06	; 6
 274:	a1 05       	cpc	r26, r1
 276:	b1 05       	cpc	r27, r1
 278:	7c f0       	brlt	.+30     	; 0x298 <pulse_glow+0x9e>
 27a:	21 96       	adiw	r28, 0x01	; 1
 27c:	10 92 00 02 	sts	0x0200, r1	; 0x800200 <__DATA_REGION_ORIGIN__>
 280:	10 92 01 02 	sts	0x0201, r1	; 0x800201 <__DATA_REGION_ORIGIN__+0x1>
 284:	10 92 02 02 	sts	0x0202, r1	; 0x800202 <__DATA_REGION_ORIGIN__+0x2>
 288:	10 92 03 02 	sts	0x0203, r1	; 0x800203 <__DATA_REGION_ORIGIN__+0x3>
 28c:	09 2d       	mov	r16, r9
 28e:	1a 2d       	mov	r17, r10
 290:	05 c0       	rjmp	.+10     	; 0x29c <pulse_glow+0xa2>
 292:	0c 2d       	mov	r16, r12
 294:	1d 2d       	mov	r17, r13
 296:	02 c0       	rjmp	.+4      	; 0x29c <pulse_glow+0xa2>
 298:	09 2d       	mov	r16, r9
 29a:	1a 2d       	mov	r17, r10
 29c:	f7 01       	movw	r30, r14
 29e:	80 81       	ld	r24, Z
 2a0:	90 e0       	ldi	r25, 0x00	; 0
 2a2:	40 91 04 02 	lds	r20, 0x0204	; 0x800204 <count>
 2a6:	50 91 05 02 	lds	r21, 0x0205	; 0x800205 <count+0x1>
 2aa:	60 91 06 02 	lds	r22, 0x0206	; 0x800206 <count+0x2>
 2ae:	70 91 07 02 	lds	r23, 0x0207	; 0x800207 <count+0x3>
 2b2:	2e 01       	movw	r4, r28
 2b4:	0d 2e       	mov	r0, r29
 2b6:	00 0c       	add	r0, r0
 2b8:	66 08       	sbc	r6, r6
 2ba:	77 08       	sbc	r7, r7
 2bc:	44 15       	cp	r20, r4
 2be:	55 05       	cpc	r21, r5
 2c0:	66 05       	cpc	r22, r6
 2c2:	77 05       	cpc	r23, r7
 2c4:	34 f4       	brge	.+12     	; 0x2d2 <pulse_glow+0xd8>
 2c6:	89 2b       	or	r24, r25
 2c8:	89 f5       	brne	.+98     	; 0x32c <pulse_glow+0x132>
 2ca:	61 e0       	ldi	r22, 0x01	; 1
 2cc:	8b 2d       	mov	r24, r11
 2ce:	74 df       	rcall	.-280    	; 0x1b8 <led_state>
 2d0:	a4 cf       	rjmp	.-184    	; 0x21a <pulse_glow+0x20>
 2d2:	40 91 04 02 	lds	r20, 0x0204	; 0x800204 <count>
 2d6:	50 91 05 02 	lds	r21, 0x0205	; 0x800205 <count+0x1>
 2da:	60 91 06 02 	lds	r22, 0x0206	; 0x800206 <count+0x2>
 2de:	70 91 07 02 	lds	r23, 0x0207	; 0x800207 <count+0x3>
 2e2:	44 3f       	cpi	r20, 0xF4	; 244
 2e4:	51 40       	sbci	r21, 0x01	; 1
 2e6:	61 05       	cpc	r22, r1
 2e8:	71 05       	cpc	r23, r1
 2ea:	34 f4       	brge	.+12     	; 0x2f8 <pulse_glow+0xfe>
 2ec:	89 2b       	or	r24, r25
 2ee:	21 f0       	breq	.+8      	; 0x2f8 <pulse_glow+0xfe>
 2f0:	60 e0       	ldi	r22, 0x00	; 0
 2f2:	8b 2d       	mov	r24, r11
 2f4:	61 df       	rcall	.-318    	; 0x1b8 <led_state>
 2f6:	91 cf       	rjmp	.-222    	; 0x21a <pulse_glow+0x20>
 2f8:	80 91 04 02 	lds	r24, 0x0204	; 0x800204 <count>
 2fc:	90 91 05 02 	lds	r25, 0x0205	; 0x800205 <count+0x1>
 300:	a0 91 06 02 	lds	r26, 0x0206	; 0x800206 <count+0x2>
 304:	b0 91 07 02 	lds	r27, 0x0207	; 0x800207 <count+0x3>
 308:	85 3f       	cpi	r24, 0xF5	; 245
 30a:	91 40       	sbci	r25, 0x01	; 1
 30c:	a1 05       	cpc	r26, r1
 30e:	b1 05       	cpc	r27, r1
 310:	0c f4       	brge	.+2      	; 0x314 <pulse_glow+0x11a>
 312:	83 cf       	rjmp	.-250    	; 0x21a <pulse_glow+0x20>
 314:	10 92 04 02 	sts	0x0204, r1	; 0x800204 <count>
 318:	10 92 05 02 	sts	0x0205, r1	; 0x800205 <count+0x1>
 31c:	10 92 06 02 	sts	0x0206, r1	; 0x800206 <count+0x2>
 320:	10 92 07 02 	sts	0x0207, r1	; 0x800207 <count+0x3>
 324:	61 e0       	ldi	r22, 0x01	; 1
 326:	8b 2d       	mov	r24, r11
 328:	47 df       	rcall	.-370    	; 0x1b8 <led_state>
 32a:	77 cf       	rjmp	.-274    	; 0x21a <pulse_glow+0x20>
 32c:	80 91 04 02 	lds	r24, 0x0204	; 0x800204 <count>
 330:	90 91 05 02 	lds	r25, 0x0205	; 0x800205 <count+0x1>
 334:	a0 91 06 02 	lds	r26, 0x0206	; 0x800206 <count+0x2>
 338:	b0 91 07 02 	lds	r27, 0x0207	; 0x800207 <count+0x3>
 33c:	84 3f       	cpi	r24, 0xF4	; 244
 33e:	91 40       	sbci	r25, 0x01	; 1
 340:	a1 05       	cpc	r26, r1
 342:	b1 05       	cpc	r27, r1
 344:	cc f6       	brge	.-78     	; 0x2f8 <pulse_glow+0xfe>
 346:	d4 cf       	rjmp	.-88     	; 0x2f0 <pulse_glow+0xf6>

00000348 <main>:
 */

int main() {
    /* Turn off global interrupts while setting up timers. */

	cli();
 348:	f8 94       	cli

	/* Set up timer 1, i.e., an interrupt every 1 microsecond. */
	OCR1A = TOP1;
 34a:	82 e0       	ldi	r24, 0x02	; 2
 34c:	90 e0       	ldi	r25, 0x00	; 0
 34e:	90 93 89 00 	sts	0x0089, r25	; 0x800089 <__TEXT_REGION_LENGTH__+0x700089>
 352:	80 93 88 00 	sts	0x0088, r24	; 0x800088 <__TEXT_REGION_LENGTH__+0x700088>
	TCCR1A = 0;
 356:	10 92 80 00 	sts	0x0080, r1	; 0x800080 <__TEXT_REGION_LENGTH__+0x700080>
	TCCR1B = 0;
 35a:	e1 e8       	ldi	r30, 0x81	; 129
 35c:	f0 e0       	ldi	r31, 0x00	; 0
 35e:	10 82       	st	Z, r1
	TCCR1B |= (1 << WGM12);
 360:	80 81       	ld	r24, Z
 362:	88 60       	ori	r24, 0x08	; 8
 364:	80 83       	st	Z, r24
    /* Next two lines provide a prescaler value of 8. */
	TCCR1B |= (1 << CS11);
 366:	80 81       	ld	r24, Z
 368:	82 60       	ori	r24, 0x02	; 2
 36a:	80 83       	st	Z, r24
	TCCR1B |= (1 << CS10);
 36c:	80 81       	ld	r24, Z
 36e:	81 60       	ori	r24, 0x01	; 1
 370:	80 83       	st	Z, r24
	TIMSK1 |= (1 << OCIE1A);
 372:	ef e6       	ldi	r30, 0x6F	; 111
 374:	f0 e0       	ldi	r31, 0x00	; 0
 376:	80 81       	ld	r24, Z
 378:	82 60       	ori	r24, 0x02	; 2
 37a:	80 83       	st	Z, r24

	/* Set up timer 3, i.e., an interrupt every 10 milliseconds. */
	OCR3A = TOP3;
 37c:	84 ec       	ldi	r24, 0xC4	; 196
 37e:	99 e0       	ldi	r25, 0x09	; 9
 380:	90 93 99 00 	sts	0x0099, r25	; 0x800099 <__TEXT_REGION_LENGTH__+0x700099>
 384:	80 93 98 00 	sts	0x0098, r24	; 0x800098 <__TEXT_REGION_LENGTH__+0x700098>
	TCCR3A = 0;
 388:	10 92 90 00 	sts	0x0090, r1	; 0x800090 <__TEXT_REGION_LENGTH__+0x700090>
	TCCR3B = 0;
 38c:	e1 e9       	ldi	r30, 0x91	; 145
 38e:	f0 e0       	ldi	r31, 0x00	; 0
 390:	10 82       	st	Z, r1
	TCCR3B |= (1 << WGM32);
 392:	80 81       	ld	r24, Z
 394:	88 60       	ori	r24, 0x08	; 8
 396:	80 83       	st	Z, r24
    /* Next line provides a prescaler value of 64. */
	TCCR3B |= (1 << CS31);
 398:	80 81       	ld	r24, Z
 39a:	82 60       	ori	r24, 0x02	; 2
 39c:	80 83       	st	Z, r24
	TIMSK3 |= (1 << OCIE3A);
 39e:	e1 e7       	ldi	r30, 0x71	; 113
 3a0:	f0 e0       	ldi	r31, 0x00	; 0
 3a2:	80 81       	ld	r24, Z
 3a4:	82 60       	ori	r24, 0x02	; 2
 3a6:	80 83       	st	Z, r24


	/* Turn on global interrupts */
	sei();
 3a8:	78 94       	sei
*/
	//SOS();

	//glow(0, 1);

	pulse_glow(3);
 3aa:	83 e0       	ldi	r24, 0x03	; 3
 3ac:	26 df       	rcall	.-436    	; 0x1fa <pulse_glow>

000003ae <_exit>:
 3ae:	f8 94       	cli

000003b0 <__stop_program>:
 3b0:	ff cf       	rjmp	.-2      	; 0x3b0 <__stop_program>
